target datalayout = "e-m:e-p270:32:32-p271:32:32-p272:64:64-i64:64-i128:128-f80:128-n8:16:32:64-S128"
target triple = "x86_64-pc-linux-gnu"

%struct.mbedtls_mpi = type { ptr, i16, i16 }
%struct.mbedtls_rsa_context = type { i32, i64, %struct.mbedtls_mpi, %struct.mbedtls_mpi, %struct.mbedtls_mpi, %struct.mbedtls_mpi, %struct.mbedtls_mpi, %struct.mbedtls_mpi, %struct.mbedtls_mpi, %struct.mbedtls_mpi, %struct.mbedtls_mpi, %struct.mbedtls_mpi, %struct.mbedtls_mpi, %struct.mbedtls_mpi, %struct.mbedtls_mpi, i32, i32 }

; Function Attrs: nounwind uwtable
define internal i32 @rsa_rsassa_pss_sign(ptr noundef %0, ptr noundef %1, ptr noundef %2, i32 noundef %3, i32 noundef %4, ptr noundef %5, i32 noundef %6, ptr noundef %7) #0 {
  %9 = alloca i32, align 4
  %10 = alloca ptr, align 8
  %11 = alloca ptr, align 8
  %12 = alloca ptr, align 8
  %13 = alloca i32, align 4
  %14 = alloca i32, align 4
  %15 = alloca ptr, align 8
  %16 = alloca i32, align 4
  %17 = alloca ptr, align 8
  store ptr %0, ptr %10, align 8, !tbaa !3
  store ptr %1, ptr %11, align 8, !tbaa !26
  store ptr %2, ptr %12, align 8, !tbaa !26
  store i32 %3, ptr %13, align 4, !tbaa !12
  store i32 %4, ptr %14, align 4, !tbaa !12
  store ptr %5, ptr %15, align 8, !tbaa !8
  store i32 %6, ptr %16, align 4, !tbaa !12
  store ptr %7, ptr %17, align 8, !tbaa !8
  %18 = load ptr, ptr %10, align 8, !tbaa !3
  %19 = getelementptr inbounds nuw %struct.mbedtls_rsa_context, ptr %18, i32 0, i32 15
  %20 = load i32, ptr %19, align 8, !tbaa !24
  %21 = icmp ne i32 %20, 1
  br i1 %21, label %22, label %23

22:                                               ; preds = %8
  store i32 -16512, ptr %9, align 4
  br label %42

23:                                               ; preds = %8
  %24 = load ptr, ptr %10, align 8, !tbaa !3
  %25 = getelementptr inbounds nuw %struct.mbedtls_rsa_context, ptr %24, i32 0, i32 16
  %26 = load i32, ptr %25, align 4, !tbaa !25
  %27 = icmp eq i32 %26, 0
  br i1 %27, label %28, label %32

28:                                               ; preds = %23
  %29 = load i32, ptr %13, align 4, !tbaa !12
  %30 = icmp eq i32 %29, 0
  br i1 %30, label %31, label %32

31:                                               ; preds = %28
  store i32 -16512, ptr %9, align 4
  br label %42

32:                                               ; preds = %28, %23
  %33 = load ptr, ptr %10, align 8, !tbaa !3
  %34 = load ptr, ptr %11, align 8, !tbaa !26
  %35 = load ptr, ptr %12, align 8, !tbaa !26
  %36 = load i32, ptr %13, align 4, !tbaa !12
  %37 = load i32, ptr %14, align 4, !tbaa !12
  %38 = load ptr, ptr %15, align 8, !tbaa !8
  %39 = load i32, ptr %16, align 4, !tbaa !12
  %40 = load ptr, ptr %17, align 8, !tbaa !8
  %41 = call i32 @rsa_rsassa_pss_sign_no_mode_check(ptr noundef %33, ptr noundef %34, ptr noundef %35, i32 noundef %36, i32 noundef %37, ptr noundef %38, i32 noundef %39, ptr noundef %40)
  store i32 %41, ptr %9, align 4
  br label %42

42:                                               ; preds = %32, %31, %22
  %43 = load i32, ptr %9, align 4
  ret i32 %43
}

; Function Attrs: nounwind uwtable
define hidden i32 @mbedtls_rsa_rsassa_pss_sign(ptr noundef %0, ptr noundef %1, ptr noundef %2, i32 noundef %3, i32 noundef %4, ptr noundef %5, ptr noundef %6) #0 {
  %8 = alloca ptr, align 8
  %9 = alloca ptr, align 8
  %10 = alloca ptr, align 8
  %11 = alloca i32, align 4
  %12 = alloca i32, align 4
  %13 = alloca ptr, align 8
  %14 = alloca ptr, align 8
  store ptr %0, ptr %8, align 8, !tbaa !3
  store ptr %1, ptr %9, align 8, !tbaa !26
  store ptr %2, ptr %10, align 8, !tbaa !26
  store i32 %3, ptr %11, align 4, !tbaa !12
  store i32 %4, ptr %12, align 4, !tbaa !12
  store ptr %5, ptr %13, align 8, !tbaa !8
  store ptr %6, ptr %14, align 8, !tbaa !8
  %15 = load ptr, ptr %8, align 8, !tbaa !3
  %16 = load ptr, ptr %9, align 8, !tbaa !26
  %17 = load ptr, ptr %10, align 8, !tbaa !26
  %18 = load i32, ptr %11, align 4, !tbaa !12
  %19 = load i32, ptr %12, align 4, !tbaa !12
  %20 = load ptr, ptr %13, align 8, !tbaa !8
  %21 = load ptr, ptr %14, align 8, !tbaa !8
  %22 = call i32 @rsa_rsassa_pss_sign(ptr noundef %15, ptr noundef %16, ptr noundef %17, i32 noundef %18, i32 noundef %19, ptr noundef %20, i32 noundef -1, ptr noundef %21)
  ret i32 %22
}

; Function Attrs: nounwind uwtable
define hidden i32 @mbedtls_rsa_pkcs1_sign(ptr noundef %0, ptr noundef %1, ptr noundef %2, i32 noundef %3, i32 noundef %4, ptr noundef %5, ptr noundef %6) #0 {
  %8 = alloca i32, align 4
  %9 = alloca ptr, align 8
  %10 = alloca ptr, align 8
  %11 = alloca ptr, align 8
  %12 = alloca i32, align 4
  %13 = alloca i32, align 4
  %14 = alloca ptr, align 8
  %15 = alloca ptr, align 8
  store ptr %0, ptr %9, align 8, !tbaa !3
  store ptr %1, ptr %10, align 8, !tbaa !26
  store ptr %2, ptr %11, align 8, !tbaa !26
  store i32 %3, ptr %12, align 4, !tbaa !12
  store i32 %4, ptr %13, align 4, !tbaa !12
  store ptr %5, ptr %14, align 8, !tbaa !8
  store ptr %6, ptr %15, align 8, !tbaa !8
  %16 = load i32, ptr %12, align 4, !tbaa !12
  %17 = icmp ne i32 %16, 0
  br i1 %17, label %21, label %18

18:                                               ; preds = %7
  %19 = load i32, ptr %13, align 4, !tbaa !12
  %20 = icmp ne i32 %19, 0
  br i1 %20, label %21, label %25

21:                                               ; preds = %18, %7
  %22 = load ptr, ptr %14, align 8, !tbaa !8
  %23 = icmp eq ptr %22, null
  br i1 %23, label %24, label %25

24:                                               ; preds = %21
  store i32 -16512, ptr %8, align 4
  br label %48

25:                                               ; preds = %21, %18
  %26 = load ptr, ptr %9, align 8, !tbaa !3
  %27 = getelementptr inbounds nuw %struct.mbedtls_rsa_context, ptr %26, i32 0, i32 15
  %28 = load i32, ptr %27, align 8, !tbaa !24
  switch i32 %28, label %47 [
    i32 0, label %29
    i32 1, label %38
  ]

29:                                               ; preds = %25
  %30 = load ptr, ptr %9, align 8, !tbaa !3
  %31 = load ptr, ptr %10, align 8, !tbaa !26
  %32 = load ptr, ptr %11, align 8, !tbaa !26
  %33 = load i32, ptr %12, align 4, !tbaa !12
  %34 = load i32, ptr %13, align 4, !tbaa !12
  %35 = load ptr, ptr %14, align 8, !tbaa !8
  %36 = load ptr, ptr %15, align 8, !tbaa !8
  %37 = call i32 @mbedtls_rsa_rsassa_pkcs1_v15_sign(ptr noundef %30, ptr noundef %31, ptr noundef %32, i32 noundef %33, i32 noundef %34, ptr noundef %35, ptr noundef %36)
  store i32 %37, ptr %8, align 4
  br label %48

38:                                               ; preds = %25
  %39 = load ptr, ptr %9, align 8, !tbaa !3
  %40 = load ptr, ptr %10, align 8, !tbaa !26
  %41 = load ptr, ptr %11, align 8, !tbaa !26
  %42 = load i32, ptr %12, align 4, !tbaa !12
  %43 = load i32, ptr %13, align 4, !tbaa !12
  %44 = load ptr, ptr %14, align 8, !tbaa !8
  %45 = load ptr, ptr %15, align 8, !tbaa !8
  %46 = call i32 @mbedtls_rsa_rsassa_pss_sign(ptr noundef %39, ptr noundef %40, ptr noundef %41, i32 noundef %42, i32 noundef %43, ptr noundef %44, ptr noundef %45)
  store i32 %46, ptr %8, align 4
  br label %48

47:                                               ; preds = %25
  store i32 -16640, ptr %8, align 4
  br label %48

48:                                               ; preds = %47, %38, %29, %24
  %49 = load i32, ptr %8, align 4
  ret i32 %49
}