; Function Attrs: nounwind uwtable
define hidden i32 @mbedtls_rsa_pkcs1_sign(ptr noundef %0, ptr noundef %1, ptr noundef %2, i32 noundef %3, i32 noundef %4, ptr noundef %5, ptr noundef %6) local_unnamed_addr #0 {
  %8 = or i32 %4, %3
  %or.cond = icmp ne i32 %8, 0
  %9 = icmp eq ptr %5, null
  %or.cond3 = and i1 %or.cond, %9
  br i1 %or.cond3, label %mbedtls_rsa_rsassa_pss_sign.exit, label %10

10:                                               ; preds = %7
  %11 = getelementptr inbounds nuw i8, ptr %0, i64 224
  %12 = load i32, ptr %11, align 8, !tbaa !17
  switch i32 %12, label %mbedtls_rsa_rsassa_pss_sign.exit [
    i32 0, label %13
    i32 1, label %15
  ]

13:                                               ; preds = %10
  %14 = tail call i32 @mbedtls_rsa_rsassa_pkcs1_v15_sign(ptr noundef nonnull %0, ptr noundef %1, ptr noundef %2, i32 noundef %3, i32 noundef %4, ptr noundef %5, ptr noundef %6)
  br label %mbedtls_rsa_rsassa_pss_sign.exit

15:                                               ; preds = %10
  %16 = getelementptr inbounds nuw i8, ptr %0, i64 228
  %17 = load i32, ptr %16, align 4, !tbaa !18
  %18 = or i32 %17, %3
  %or.cond.i.i = icmp eq i32 %18, 0
  br i1 %or.cond.i.i, label %mbedtls_rsa_rsassa_pss_sign.exit, label %19

19:                                               ; preds = %15
  %20 = tail call fastcc i32 @rsa_rsassa_pss_sign_no_mode_check(ptr noundef nonnull %0, ptr noundef %1, ptr noundef %2, i32 noundef %3, i32 noundef %4, ptr noundef %5, i32 noundef -1, ptr noundef %6)
  br label %mbedtls_rsa_rsassa_pss_sign.exit

mbedtls_rsa_rsassa_pss_sign.exit:                 ; preds = %19, %15, %10, %7, %13
  %.0 = phi i32 [ %14, %13 ], [ -16512, %7 ], [ -16640, %10 ], [ %20, %19 ], [ -16512, %15 ]
  ret i32 %.0
}